; Function Attrs: mustprogress uwtable
define internal fastcc noundef ptr @_ZL31stbi__load_and_postprocess_8bitP13stbi__contextPiS1_S1_i(ptr noundef nonnull %0, ptr noundef captures(none) %1, ptr noundef captures(none) %2, ptr noundef %3, i32 noundef %4) unnamed_addr #4 {
  %6 = alloca [2048 x i8], align 16
  %7 = alloca %struct.stbi__result_info, align 4
  call void @llvm.lifetime.start.p0(i64 12, ptr nonnull %7) #35
  %8 = call fastcc noundef ptr @_ZL15stbi__load_mainP13stbi__contextPiS1_S1_iP17stbi__result_infoi(ptr noundef %0, ptr noundef %1, ptr noundef %2, ptr noundef %3, i32 noundef %4, ptr noundef %7)
  %9 = icmp eq ptr %8, null
  br i1 %9, label %59, label %10

10:                                               ; preds = %5
  %11 = load i32, ptr %7, align 4, !tbaa !26
  %.not = icmp eq i32 %11, 8
  br i1 %.not, label %32, label %12

12:                                               ; preds = %10
  %13 = load i32, ptr %1, align 4, !tbaa !10
  %14 = load i32, ptr %2, align 4, !tbaa !10
  %15 = icmp eq i32 %4, 0
  br i1 %15, label %16, label %18

16:                                               ; preds = %12
  %17 = load i32, ptr %3, align 4, !tbaa !10
  br label %18

18:                                               ; preds = %12, %16
  %19 = phi i32 [ %17, %16 ], [ %4, %12 ]
  %20 = mul nsw i32 %14, %13
  %21 = mul nsw i32 %20, %19
  %22 = sext i32 %21 to i64
  %23 = tail call noalias noundef ptr @malloc(i64 noundef range(i64 -2147483648, 4294967296) %22) #36
  %24 = icmp eq ptr %23, null
  br i1 %24, label %26, label %.preheader.i

.preheader.i:                                     ; preds = %18
  %25 = icmp sgt i32 %21, 0
  br i1 %25, label %.lr.ph.preheader.i, label %._crit_edge.i

.lr.ph.preheader.i:                               ; preds = %.preheader.i
  %wide.trip.count.i = zext nneg i32 %21 to i64
  br label %.lr.ph.i

26:                                               ; preds = %18
  store ptr @.str.23, ptr @_ZL22stbi__g_failure_reason, align 8, !tbaa !5
  br label %_ZL21stbi__convert_16_to_8Ptiii.exit

.lr.ph.i:                                         ; preds = %.lr.ph.i, %.lr.ph.preheader.i
  %indvars.iv.i = phi i64 [ 0, %.lr.ph.preheader.i ], [ %indvars.iv.next.i, %.lr.ph.i ]
  %27 = getelementptr inbounds nuw i16, ptr %8, i64 %indvars.iv.i
  %28 = load i16, ptr %27, align 2, !tbaa !28
  %29 = lshr i16 %28, 8
  %30 = trunc nuw i16 %29 to i8
  %31 = getelementptr inbounds nuw i8, ptr %23, i64 %indvars.iv.i
  store i8 %30, ptr %31, align 1, !tbaa !23
  %indvars.iv.next.i = add nuw nsw i64 %indvars.iv.i, 1
  %exitcond.not.i = icmp eq i64 %indvars.iv.next.i, %wide.trip.count.i
  br i1 %exitcond.not.i, label %._crit_edge.i, label %.lr.ph.i, !llvm.loop !30

._crit_edge.i:                                    ; preds = %.lr.ph.i, %.preheader.i
  tail call void @free(ptr noundef nonnull %8) #35
  br label %_ZL21stbi__convert_16_to_8Ptiii.exit

_ZL21stbi__convert_16_to_8Ptiii.exit:             ; preds = %26, %._crit_edge.i
  store i32 8, ptr %7, align 4, !tbaa !26
  br label %32

32:                                               ; preds = %_ZL21stbi__convert_16_to_8Ptiii.exit, %10
  %.020 = phi ptr [ %23, %_ZL21stbi__convert_16_to_8Ptiii.exit ], [ %8, %10 ]
  %33 = load i32, ptr @_ZL36stbi__vertically_flip_on_load_global, align 4, !tbaa !10
  %.not23 = icmp eq i32 %33, 0
  br i1 %.not23, label %59, label %34

34:                                               ; preds = %32
  %.not24 = icmp eq i32 %4, 0
  br i1 %.not24, label %35, label %37

35:                                               ; preds = %34
  %36 = load i32, ptr %3, align 4, !tbaa !10
  br label %37

37:                                               ; preds = %34, %35
  %38 = phi i32 [ %36, %35 ], [ %4, %34 ]
  %39 = load i32, ptr %1, align 4, !tbaa !10
  %40 = load i32, ptr %2, align 4, !tbaa !10
  %41 = sext i32 %39 to i64
  %42 = sext i32 %38 to i64
  %43 = mul nsw i64 %41, %42
  call void @llvm.lifetime.start.p0(i64 2048, ptr nonnull %6)
  %44 = ashr i32 %40, 1
  %45 = icmp slt i32 %44, 1
  %.not32.i = icmp eq i64 %43, 0
  %or.cond.i = select i1 %45, i1 true, i1 %.not32.i
  br i1 %or.cond.i, label %_ZL19stbi__vertical_flipPviii.exit, label %.lr.ph.preheader.i25

.lr.ph.preheader.i25:                             ; preds = %37
  %wide.trip.count.i26 = zext nneg i32 %44 to i64
  br label %.lr.ph.i27

.lr.ph.i27:                                       ; preds = %._crit_edge.i29, %.lr.ph.preheader.i25
  %indvars.iv.i28 = phi i64 [ 0, %.lr.ph.preheader.i25 ], [ %indvars.iv.next.i30, %._crit_edge.i29 ]
  %46 = mul i64 %indvars.iv.i28, %43
  %47 = getelementptr inbounds nuw i8, ptr %.020, i64 %46
  %48 = trunc i64 %indvars.iv.i28 to i32
  %49 = xor i32 %48, -1
  %50 = add i32 %40, %49
  %51 = sext i32 %50 to i64
  %52 = mul i64 %43, %51
  %53 = getelementptr inbounds nuw i8, ptr %.020, i64 %52
  br label %54

54:                                               ; preds = %54, %.lr.ph.i27
  %.02935.i = phi i64 [ %43, %.lr.ph.i27 ], [ %58, %54 ]
  %.03034.i = phi ptr [ %53, %.lr.ph.i27 ], [ %57, %54 ]
  %.03133.i = phi ptr [ %47, %.lr.ph.i27 ], [ %56, %54 ]
  %55 = tail call i64 @llvm.umin.i64(i64 %.02935.i, i64 2048)
  call void @llvm.memcpy.p0.p0.i64(ptr nonnull align 16 %6, ptr align 1 %.03133.i, i64 %55, i1 false)
  tail call void @llvm.memcpy.p0.p0.i64(ptr align 1 %.03133.i, ptr align 1 %.03034.i, i64 %55, i1 false)
  call void @llvm.memcpy.p0.p0.i64(ptr align 1 %.03034.i, ptr nonnull align 16 %6, i64 %55, i1 false)
  %56 = getelementptr inbounds nuw i8, ptr %.03133.i, i64 %55
  %57 = getelementptr inbounds nuw i8, ptr %.03034.i, i64 %55
  %58 = sub i64 %.02935.i, %55
  %.not.i = icmp eq i64 %58, 0
  br i1 %.not.i, label %._crit_edge.i29, label %54, !llvm.loop !32

._crit_edge.i29:                                  ; preds = %54
  %indvars.iv.next.i30 = add nuw nsw i64 %indvars.iv.i28, 1
  %exitcond.not.i31 = icmp eq i64 %indvars.iv.next.i30, %wide.trip.count.i26
  br i1 %exitcond.not.i31, label %_ZL19stbi__vertical_flipPviii.exit, label %.lr.ph.i27, !llvm.loop !33

_ZL19stbi__vertical_flipPviii.exit:               ; preds = %._crit_edge.i29, %37
  call void @llvm.lifetime.end.p0(i64 2048, ptr nonnull %6)
  br label %59

59:                                               ; preds = %32, %_ZL19stbi__vertical_flipPviii.exit, %5
  %.0 = phi ptr [ null, %5 ], [ %.020, %_ZL19stbi__vertical_flipPviii.exit ], [ %.020, %32 ]
  call void @llvm.lifetime.end.p0(i64 12, ptr nonnull %7) #35
  ret ptr %.0
}